; Function Attrs: nounwind sspstrong uwtable
define internal i32 @bdrv_mirror_top_flush(ptr noundef readonly captures(none) %bs) #0 {
entry:
  %backing = getelementptr inbounds nuw i8, ptr %bs, i64 16832
  %0 = load ptr, ptr %backing, align 8
  %cmp = icmp eq ptr %0, null
  br i1 %cmp, label %return, label %if.end

if.end:                                           ; preds = %entry
  %1 = load ptr, ptr %0, align 8
  %call = tail call i32 @bdrv_co_flush(ptr noundef %1) #12
  br label %return

return:                                           ; preds = %entry, %if.end
  %retval.0 = phi i32 [ %call, %if.end ], [ 0, %entry ]
  ret i32 %retval.0
}